target datalayout = "e-m:e-p270:32:32-p271:32:32-p272:64:64-i64:64-i128:128-f80:128-n8:16:32:64-S128"
target triple = "x86_64-pc-linux-gnu"

%struct._object = type { %union.anon, ptr }
%union.anon = type { i64 }
%struct.PyMutex = type { i8 }
%struct._queues = type { ptr, ptr, i64, i64 }
%struct.globals = type { %struct.PyMutex, i32, %struct._queues }
%struct.module_state = type { ptr, ptr, ptr, ptr, ptr }
%struct.anon = type { i32, i32 }

@_globals = internal global { %struct.PyMutex, [3 x i8], i32, %struct._queues } zeroinitializer, align 8
@PyExc_RuntimeError = external global ptr, align 8
@.str.58 = private unnamed_addr constant [37 x i8] c"test.support.interpreters.QueueError\00", align 1
@.str.59 = private unnamed_addr constant [47 x i8] c"Indicates that a queue-related error happened.\00", align 1
@.str.60 = private unnamed_addr constant [45 x i8] c"test.support.interpreters.QueueNotFoundError\00", align 1

; Function Attrs: alwaysinline nounwind uwtable
define internal i32 @_Py_IsImmortal(ptr noundef %0) #6 {
  %2 = alloca ptr, align 8
  store ptr %0, ptr %2, align 8, !tbaa !3
  %3 = load ptr, ptr %2, align 8, !tbaa !3
  %4 = getelementptr inbounds nuw %struct._object, ptr %3, i32 0, i32 0
  %5 = getelementptr inbounds nuw %struct.anon, ptr %4, i32 0, i32 0
  %6 = load i32, ptr %5, align 8, !tbaa !73
  %7 = icmp slt i32 %6, 0
  %8 = zext i1 %7 to i32
  ret i32 %8
}

; Function Attrs: alwaysinline nounwind uwtable
define internal void @Py_DECREF(ptr noundef %0) #6 {
  %2 = alloca ptr, align 8
  store ptr %0, ptr %2, align 8, !tbaa !3
  %3 = load ptr, ptr %2, align 8, !tbaa !3
  %4 = call i32 @_Py_IsImmortal(ptr noundef %3)
  %5 = icmp ne i32 %4, 0
  br i1 %5, label %6, label %7

6:                                                ; preds = %1
  br label %16

7:                                                ; preds = %1
  %8 = load ptr, ptr %2, align 8, !tbaa !3
  %9 = getelementptr inbounds nuw %struct._object, ptr %8, i32 0, i32 0
  %10 = getelementptr inbounds nuw %struct.anon, ptr %9, i32 0, i32 0
  %11 = load i32, ptr %10, align 8, !tbaa !73
  %12 = add i32 %11, -1
  store i32 %12, ptr %10, align 8, !tbaa !73
  %13 = icmp eq i32 %12, 0
  br i1 %13, label %14, label %16

14:                                               ; preds = %7
  %15 = load ptr, ptr %2, align 8, !tbaa !3
  call void @_Py_Dealloc(ptr noundef %15)
  br label %16

16:                                               ; preds = %6, %14, %7
  ret void
}

; Function Attrs: inlinehint nounwind uwtable
define internal i32 @_Py_atomic_compare_exchange_uint8(ptr noundef %0, ptr noundef %1, i8 noundef zeroext %2) #5 {
  %4 = alloca ptr, align 8
  %5 = alloca ptr, align 8
  %6 = alloca i8, align 1
  %7 = alloca i8, align 1
  %8 = alloca i8, align 1
  store ptr %0, ptr %4, align 8, !tbaa !83
  store ptr %1, ptr %5, align 8, !tbaa !83
  store i8 %2, ptr %6, align 1, !tbaa !73
  %9 = load ptr, ptr %4, align 8, !tbaa !83
  %10 = load ptr, ptr %5, align 8, !tbaa !83
  %11 = load i8, ptr %6, align 1, !tbaa !73
  store i8 %11, ptr %7, align 1, !tbaa !73
  %12 = load i8, ptr %10, align 1
  %13 = load i8, ptr %7, align 1
  %14 = cmpxchg ptr %9, i8 %12, i8 %13 seq_cst seq_cst, align 1
  %15 = extractvalue { i8, i1 } %14, 0
  %16 = extractvalue { i8, i1 } %14, 1
  br i1 %16, label %18, label %17

17:                                               ; preds = %3
  store i8 %15, ptr %10, align 1
  br label %18

18:                                               ; preds = %17, %3
  %19 = zext i1 %16 to i8
  store i8 %19, ptr %8, align 1, !tbaa !137
  %20 = load i8, ptr %8, align 1, !tbaa !137, !range !139, !noundef !140
  %21 = trunc i8 %20 to i1
  %22 = zext i1 %21 to i32
  ret i32 %22
}

; Function Attrs: nounwind uwtable
define internal i32 @add_exctype(ptr noundef %0, ptr noundef %1, ptr noundef %2, ptr noundef %3, ptr noundef %4) #0 {
  %6 = alloca i32, align 4
  %7 = alloca ptr, align 8
  %8 = alloca ptr, align 8
  %9 = alloca ptr, align 8
  %10 = alloca ptr, align 8
  %11 = alloca ptr, align 8
  %12 = alloca ptr, align 8
  %13 = alloca i32, align 4
  store ptr %0, ptr %7, align 8, !tbaa !3
  store ptr %1, ptr %8, align 8, !tbaa !22
  store ptr %2, ptr %9, align 8, !tbaa !83
  store ptr %3, ptr %10, align 8, !tbaa !83
  store ptr %4, ptr %11, align 8, !tbaa !3
  call void @llvm.lifetime.start.p0(i64 8, ptr %12) #8
  %14 = load ptr, ptr %9, align 8, !tbaa !83
  %15 = load ptr, ptr %10, align 8, !tbaa !83
  %16 = load ptr, ptr %11, align 8, !tbaa !3
  %17 = call ptr @PyErr_NewExceptionWithDoc(ptr noundef %14, ptr noundef %15, ptr noundef %16, ptr noundef null)
  store ptr %17, ptr %12, align 8, !tbaa !3
  %18 = load ptr, ptr %12, align 8, !tbaa !3
  %19 = icmp eq ptr %18, null
  br i1 %19, label %20, label %21

20:                                               ; preds = %5
  store i32 -1, ptr %6, align 4
  store i32 1, ptr %13, align 4
  br label %31

21:                                               ; preds = %5
  %22 = load ptr, ptr %7, align 8, !tbaa !3
  %23 = load ptr, ptr %12, align 8, !tbaa !3
  %24 = call i32 @PyModule_AddType(ptr noundef %22, ptr noundef %23)
  %25 = icmp slt i32 %24, 0
  br i1 %25, label %26, label %28

26:                                               ; preds = %21
  %27 = load ptr, ptr %12, align 8, !tbaa !3
  call void @Py_DECREF(ptr noundef %27)
  store i32 -1, ptr %6, align 4
  store i32 1, ptr %13, align 4
  br label %31

28:                                               ; preds = %21
  %29 = load ptr, ptr %12, align 8, !tbaa !3
  %30 = load ptr, ptr %8, align 8, !tbaa !22
  store ptr %29, ptr %30, align 8, !tbaa !3
  store i32 0, ptr %6, align 4
  store i32 1, ptr %13, align 4
  br label %31

31:                                               ; preds = %28, %26, %20
  call void @llvm.lifetime.end.p0(i64 8, ptr %12) #8
  %32 = load i32, ptr %6, align 4
  ret i32 %32
}

; Function Attrs: inlinehint nounwind uwtable
define internal ptr @get_module_state(ptr noundef %0) #5 {
  %2 = alloca ptr, align 8
  %3 = alloca ptr, align 8
  store ptr %0, ptr %2, align 8, !tbaa !3
  call void @llvm.lifetime.start.p0(i64 8, ptr %3) #8
  %4 = load ptr, ptr %2, align 8, !tbaa !3
  %5 = call ptr @PyModule_GetState(ptr noundef %4)
  store ptr %5, ptr %3, align 8, !tbaa !8
  %6 = load ptr, ptr %3, align 8, !tbaa !8
  call void @llvm.lifetime.end.p0(i64 8, ptr %3) #8
  ret ptr %6
}

; Function Attrs: nounwind uwtable
define internal void @_queues_init(ptr noundef %0, ptr noundef %1) #0 {
  %3 = alloca ptr, align 8
  %4 = alloca ptr, align 8
  %5 = alloca %struct._queues, align 8
  store ptr %0, ptr %3, align 8, !tbaa !39
  store ptr %1, ptr %4, align 8, !tbaa !8
  %6 = load ptr, ptr %3, align 8, !tbaa !39
  %7 = getelementptr inbounds nuw %struct._queues, ptr %5, i32 0, i32 0
  %8 = load ptr, ptr %4, align 8, !tbaa !8
  store ptr %8, ptr %7, align 8, !tbaa !49
  %9 = getelementptr inbounds nuw %struct._queues, ptr %5, i32 0, i32 1
  store ptr null, ptr %9, align 8, !tbaa !57
  %10 = getelementptr inbounds nuw %struct._queues, ptr %5, i32 0, i32 2
  store i64 0, ptr %10, align 8, !tbaa !58
  %11 = getelementptr inbounds nuw %struct._queues, ptr %5, i32 0, i32 3
  store i64 1, ptr %11, align 8, !tbaa !60
  call void @llvm.memcpy.p0.p0.i64(ptr align 8 %6, ptr align 8 %5, i64 32, i1 false), !tbaa.struct !136
  ret void
}

; Function Attrs: inlinehint nounwind uwtable
define internal void @_PyMutex_Unlock(ptr noundef %0) #5 {
  %2 = alloca ptr, align 8
  %3 = alloca i8, align 1
  store ptr %0, ptr %2, align 8, !tbaa !134
  call void @llvm.lifetime.start.p0(i64 1, ptr %3) #8
  store i8 1, ptr %3, align 1, !tbaa !73
  %4 = load ptr, ptr %2, align 8, !tbaa !134
  %5 = getelementptr inbounds nuw %struct.PyMutex, ptr %4, i32 0, i32 0
  %6 = call i32 @_Py_atomic_compare_exchange_uint8(ptr noundef %5, ptr noundef %3, i8 noundef zeroext 0)
  %7 = icmp ne i32 %6, 0
  br i1 %7, label %10, label %8

8:                                                ; preds = %1
  %9 = load ptr, ptr %2, align 8, !tbaa !134
  call void @PyMutex_Unlock(ptr noundef %9)
  br label %10

10:                                               ; preds = %8, %1
  call void @llvm.lifetime.end.p0(i64 1, ptr %3) #8
  ret void
}

; Function Attrs: inlinehint nounwind uwtable
define internal void @_PyMutex_Lock(ptr noundef %0) #5 {
  %2 = alloca ptr, align 8
  %3 = alloca i8, align 1
  store ptr %0, ptr %2, align 8, !tbaa !134
  call void @llvm.lifetime.start.p0(i64 1, ptr %3) #8
  store i8 0, ptr %3, align 1, !tbaa !73
  %4 = load ptr, ptr %2, align 8, !tbaa !134
  %5 = getelementptr inbounds nuw %struct.PyMutex, ptr %4, i32 0, i32 0
  %6 = call i32 @_Py_atomic_compare_exchange_uint8(ptr noundef %5, ptr noundef %3, i8 noundef zeroext 1)
  %7 = icmp ne i32 %6, 0
  br i1 %7, label %10, label %8

8:                                                ; preds = %1
  %9 = load ptr, ptr %2, align 8, !tbaa !134
  call void @PyMutex_Lock(ptr noundef %9)
  br label %10

10:                                               ; preds = %8, %1
  call void @llvm.lifetime.end.p0(i64 1, ptr %3) #8
  ret void
}

; Function Attrs: nounwind uwtable
define internal ptr @_get_current_interp() #0 {
  %1 = call ptr @PyInterpreterState_Get()
  ret ptr %1
}

; Function Attrs: nounwind uwtable
define internal i32 @add_QueueError(ptr noundef %0) #0 {
  %2 = alloca i32, align 4
  %3 = alloca ptr, align 8
  %4 = alloca ptr, align 8
  %5 = alloca i32, align 4
  store ptr %0, ptr %3, align 8, !tbaa !3
  call void @llvm.lifetime.start.p0(i64 8, ptr %4) #8
  %6 = load ptr, ptr %3, align 8, !tbaa !3
  %7 = call ptr @get_module_state(ptr noundef %6)
  store ptr %7, ptr %4, align 8, !tbaa !8
  %8 = load ptr, ptr %3, align 8, !tbaa !3
  %9 = load ptr, ptr %4, align 8, !tbaa !8
  %10 = getelementptr inbounds nuw %struct.module_state, ptr %9, i32 0, i32 1
  %11 = load ptr, ptr @PyExc_RuntimeError, align 8, !tbaa !3
  %12 = call i32 @add_exctype(ptr noundef %8, ptr noundef %10, ptr noundef @.str.58, ptr noundef @.str.59, ptr noundef %11)
  %13 = icmp slt i32 %12, 0
  br i1 %13, label %14, label %15

14:                                               ; preds = %1
  store i32 -1, ptr %2, align 4
  store i32 1, ptr %5, align 4
  br label %30

15:                                               ; preds = %1
  %16 = load ptr, ptr %3, align 8, !tbaa !3
  %17 = load ptr, ptr %4, align 8, !tbaa !8
  %18 = getelementptr inbounds nuw %struct.module_state, ptr %17, i32 0, i32 2
  %19 = load ptr, ptr %4, align 8, !tbaa !8
  %20 = getelementptr inbounds nuw %struct.module_state, ptr %19, i32 0, i32 1
  %21 = load ptr, ptr %20, align 8, !tbaa !67
  %22 = call i32 @add_exctype(ptr noundef %16, ptr noundef %18, ptr noundef @.str.60, ptr noundef null, ptr noundef %21)
  %23 = icmp slt i32 %22, 0
  br i1 %23, label %24, label %25

24:                                               ; preds = %15
  store i32 -1, ptr %2, align 4
  store i32 1, ptr %5, align 4
  br label %30

25:                                               ; preds = %15
  %26 = load ptr, ptr %4, align 8, !tbaa !8
  %27 = getelementptr inbounds nuw %struct.module_state, ptr %26, i32 0, i32 3
  store ptr null, ptr %27, align 8, !tbaa !71
  %28 = load ptr, ptr %4, align 8, !tbaa !8
  %29 = getelementptr inbounds nuw %struct.module_state, ptr %28, i32 0, i32 4
  store ptr null, ptr %29, align 8, !tbaa !72
  store i32 0, ptr %2, align 4
  store i32 1, ptr %5, align 4
  br label %30

30:                                               ; preds = %25, %24, %14
  call void @llvm.lifetime.end.p0(i64 8, ptr %4) #8
  %31 = load i32, ptr %2, align 4
  ret i32 %31
}

; Function Attrs: nounwind uwtable
define internal i32 @_globals_init() #0 {
  %1 = alloca i32, align 4
  %2 = alloca ptr, align 8
  %3 = alloca i32, align 4
  call void @_PyMutex_Lock(ptr noundef @_globals)
  %4 = load i32, ptr getelementptr inbounds nuw (%struct.globals, ptr @_globals, i32 0, i32 1), align 4, !tbaa !133
  %5 = add i32 %4, 1
  store i32 %5, ptr getelementptr inbounds nuw (%struct.globals, ptr @_globals, i32 0, i32 1), align 4, !tbaa !133
  %6 = load i32, ptr getelementptr inbounds nuw (%struct.globals, ptr @_globals, i32 0, i32 1), align 4, !tbaa !133
  %7 = icmp eq i32 %6, 1
  br i1 %7, label %8, label %20

8:                                                ; preds = %0
  call void @llvm.lifetime.start.p0(i64 8, ptr %2) #8
  %9 = call ptr @PyThread_allocate_lock()
  store ptr %9, ptr %2, align 8, !tbaa !8
  %10 = load ptr, ptr %2, align 8, !tbaa !8
  %11 = icmp eq ptr %10, null
  br i1 %11, label %12, label %15

12:                                               ; preds = %8
  %13 = load i32, ptr getelementptr inbounds nuw (%struct.globals, ptr @_globals, i32 0, i32 1), align 4, !tbaa !133
  %14 = add i32 %13, -1
  store i32 %14, ptr getelementptr inbounds nuw (%struct.globals, ptr @_globals, i32 0, i32 1), align 4, !tbaa !133
  call void @_PyMutex_Unlock(ptr noundef @_globals)
  store i32 -11, ptr %1, align 4
  store i32 1, ptr %3, align 4
  br label %17

15:                                               ; preds = %8
  %16 = load ptr, ptr %2, align 8, !tbaa !8
  call void @_queues_init(ptr noundef getelementptr inbounds nuw (%struct.globals, ptr @_globals, i32 0, i32 2), ptr noundef %16)
  store i32 0, ptr %3, align 4
  br label %17

17:                                               ; preds = %15, %12
  call void @llvm.lifetime.end.p0(i64 8, ptr %2) #8
  %18 = load i32, ptr %3, align 4
  switch i32 %18, label %23 [
    i32 0, label %19
    i32 1, label %21
  ]

19:                                               ; preds = %17
  br label %20

20:                                               ; preds = %19, %0
  call void @_PyMutex_Unlock(ptr noundef @_globals)
  store i32 0, ptr %1, align 4
  br label %21

21:                                               ; preds = %20, %17
  %22 = load i32, ptr %1, align 4
  ret i32 %22

23:                                               ; preds = %17
  unreachable
}

; Function Attrs: nounwind uwtable
define internal i32 @module_exec(ptr noundef %0) #0 {
  %2 = alloca i32, align 4
  %3 = alloca ptr, align 8
  %4 = alloca i32, align 4
  %5 = alloca i32, align 4
  %6 = alloca ptr, align 8
  store ptr %0, ptr %3, align 8, !tbaa !3
  call void @llvm.lifetime.start.p0(i64 4, ptr %4) #8
  %7 = call i32 @_globals_init()
  store i32 %7, ptr %4, align 4, !tbaa !9
  %8 = load i32, ptr %4, align 4, !tbaa !9
  %9 = load ptr, ptr %3, align 8, !tbaa !3
  %10 = call i32 @handle_queue_error(i32 noundef %8, ptr noundef %9, i64 noundef -1)
  %11 = icmp ne i32 %10, 0
  br i1 %11, label %12, label %13

12:                                               ; preds = %1
  store i32 -1, ptr %2, align 4
  store i32 1, ptr %5, align 4
  br label %24

13:                                               ; preds = %1
  %14 = load ptr, ptr %3, align 8, !tbaa !3
  %15 = call i32 @add_QueueError(ptr noundef %14)
  %16 = icmp slt i32 %15, 0
  br i1 %16, label %17, label %18

17:                                               ; preds = %13
  br label %23

18:                                               ; preds = %13
  %19 = call ptr @_get_current_interp()
  store ptr %19, ptr %6, align 8, !tbaa !98
  %20 = load ptr, ptr %6, align 8, !tbaa !98
  %21 = load ptr, ptr %6, align 8, !tbaa !98
  %22 = call i32 @PyUnstable_AtExit(ptr noundef %20, ptr noundef @clear_interpreter, ptr noundef %21)
  store i32 0, ptr %2, align 4
  store i32 1, ptr %5, align 4
  br label %24

23:                                               ; preds = %17
  call void @_globals_fini()
  store i32 -1, ptr %2, align 4
  store i32 1, ptr %5, align 4
  br label %24

24:                                               ; preds = %23, %18, %12
  call void @llvm.lifetime.end.p0(i64 4, ptr %4) #8
  %25 = load i32, ptr %2, align 4
  ret i32 %25
}