; Function Attrs: nounwind uwtable
define internal range(i32 -1, 1) i32 @module_exec(ptr noundef %0) #0 {
  %2 = cmpxchg ptr @_globals, i8 0, i8 1 seq_cst seq_cst, align 1
  %3 = extractvalue { i8, i1 } %2, 1
  br i1 %3, label %_PyMutex_Lock.exit.i, label %4

4:                                                ; preds = %1
  tail call void @PyMutex_Lock(ptr noundef nonnull @_globals) #6
  br label %_PyMutex_Lock.exit.i

_PyMutex_Lock.exit.i:                             ; preds = %4, %1
  %5 = load i32, ptr getelementptr inbounds nuw (i8, ptr @_globals, i64 4), align 4, !tbaa !102
  %6 = add i32 %5, 1
  store i32 %6, ptr getelementptr inbounds nuw (i8, ptr @_globals, i64 4), align 4, !tbaa !102
  %7 = icmp eq i32 %5, 0
  br i1 %7, label %8, label %16

8:                                                ; preds = %_PyMutex_Lock.exit.i
  %9 = tail call ptr @PyThread_allocate_lock() #6
  %10 = icmp eq ptr %9, null
  br i1 %10, label %11, label %_PyMutex_Unlock.exit.i

11:                                               ; preds = %8
  %12 = load i32, ptr getelementptr inbounds nuw (i8, ptr @_globals, i64 4), align 4, !tbaa !102
  %13 = add i32 %12, -1
  store i32 %13, ptr getelementptr inbounds nuw (i8, ptr @_globals, i64 4), align 4, !tbaa !102
  %14 = cmpxchg ptr @_globals, i8 1, i8 0 seq_cst seq_cst, align 1
  %15 = extractvalue { i8, i1 } %14, 1
  br i1 %15, label %_globals_init.exit, label %_PyMutex_Unlock.exit5.sink.split.i

_PyMutex_Unlock.exit.i:                           ; preds = %8
  store ptr %9, ptr getelementptr inbounds nuw (i8, ptr @_globals, i64 8), align 8, !tbaa !19
  tail call void @llvm.memset.p0.i64(ptr noundef nonnull align 8 dereferenceable(16) getelementptr inbounds nuw (i8, ptr @_globals, i64 16), i8 0, i64 16, i1 false)
  store i64 1, ptr getelementptr inbounds nuw (i8, ptr @_globals, i64 32), align 8, !tbaa !17
  br label %16

16:                                               ; preds = %_PyMutex_Unlock.exit.i, %_PyMutex_Lock.exit.i
  %17 = cmpxchg ptr @_globals, i8 1, i8 0 seq_cst seq_cst, align 1
  %18 = extractvalue { i8, i1 } %17, 1
  br i1 %18, label %_globals_init.exit, label %_PyMutex_Unlock.exit5.sink.split.i

_PyMutex_Unlock.exit5.sink.split.i:               ; preds = %16, %11
  %.1.ph.i = phi i32 [ -11, %11 ], [ 0, %16 ]
  tail call void @PyMutex_Unlock(ptr noundef nonnull @_globals) #6
  br label %_globals_init.exit

_globals_init.exit:                               ; preds = %11, %16, %_PyMutex_Unlock.exit5.sink.split.i
  %.1.i = phi i32 [ 0, %16 ], [ -11, %11 ], [ %.1.ph.i, %_PyMutex_Unlock.exit5.sink.split.i ]
  %19 = tail call fastcc i32 @handle_queue_error(i32 noundef %.1.i, ptr noundef %0, i64 noundef -1)
  %.not = icmp eq i32 %19, 0
  br i1 %.not, label %20, label %51

20:                                               ; preds = %_globals_init.exit
  %21 = tail call ptr @PyModule_GetState(ptr noundef %0) #6
  %22 = getelementptr inbounds nuw i8, ptr %21, i64 8
  %23 = load ptr, ptr @PyExc_RuntimeError, align 8, !tbaa !16
  %24 = tail call ptr @PyErr_NewExceptionWithDoc(ptr noundef nonnull @.str.58, ptr noundef nonnull @.str.59, ptr noundef %23, ptr noundef null) #6
  %25 = icmp eq ptr %24, null
  br i1 %25, label %50, label %26

26:                                               ; preds = %20
  %27 = tail call i32 @PyModule_AddType(ptr noundef %0, ptr noundef nonnull %24) #6
  %28 = icmp slt i32 %27, 0
  br i1 %28, label %29, label %34

29:                                               ; preds = %26
  %30 = load i32, ptr %24, align 8, !tbaa !55
  %.not.i.i.i = icmp sgt i32 %30, -1
  br i1 %.not.i.i.i, label %31, label %50

31:                                               ; preds = %29
  %32 = add nsw i32 %30, -1
  store i32 %32, ptr %24, align 8, !tbaa !55
  %33 = icmp eq i32 %32, 0
  br i1 %33, label %.sink.split, label %50

34:                                               ; preds = %26
  store ptr %24, ptr %22, align 8, !tbaa !16
  %35 = getelementptr inbounds nuw i8, ptr %21, i64 16
  %36 = tail call ptr @PyErr_NewExceptionWithDoc(ptr noundef nonnull @.str.60, ptr noundef null, ptr noundef nonnull %24, ptr noundef null) #6
  %37 = icmp eq ptr %36, null
  br i1 %37, label %50, label %38

38:                                               ; preds = %34
  %39 = tail call i32 @PyModule_AddType(ptr noundef %0, ptr noundef nonnull %36) #6
  %40 = icmp slt i32 %39, 0
  br i1 %40, label %41, label %46

41:                                               ; preds = %38
  %42 = load i32, ptr %36, align 8, !tbaa !55
  %.not.i.i9.i = icmp sgt i32 %42, -1
  br i1 %.not.i.i9.i, label %43, label %50

43:                                               ; preds = %41
  %44 = add nsw i32 %42, -1
  store i32 %44, ptr %36, align 8, !tbaa !55
  %45 = icmp eq i32 %44, 0
  br i1 %45, label %.sink.split, label %50

46:                                               ; preds = %38
  store ptr %36, ptr %35, align 8, !tbaa !16
  %47 = getelementptr inbounds nuw i8, ptr %21, i64 24
  tail call void @llvm.memset.p0.i64(ptr noundef nonnull align 8 dereferenceable(16) %47, i8 0, i64 16, i1 false)
  %48 = tail call ptr @PyInterpreterState_Get() #6
  %49 = tail call i32 @PyUnstable_AtExit(ptr noundef %48, ptr noundef nonnull @clear_interpreter, ptr noundef %48) #6
  br label %51

.sink.split:                                      ; preds = %43, %31
  %.sink = phi ptr [ %24, %31 ], [ %36, %43 ]
  tail call void @_Py_Dealloc(ptr noundef nonnull %.sink) #6
  br label %50

50:                                               ; preds = %.sink.split, %20, %29, %31, %34, %41, %43
  tail call fastcc void @_globals_fini()
  br label %51

51:                                               ; preds = %_globals_init.exit, %50, %46
  %.0 = phi i32 [ -1, %50 ], [ 0, %46 ], [ -1, %_globals_init.exit ]
  ret i32 %.0
}